target datalayout = "e-m:e-p270:32:32-p271:32:32-p272:64:64-i64:64-i128:128-f80:128-n8:16:32:64-S128"
target triple = "x86_64-pc-linux-gnu"

%struct.evp_test_st = type { %struct.stanza_st, ptr, i32, ptr, ptr, ptr, ptr, ptr, ptr, i32 }
%struct.stanza_st = type { ptr, ptr, i32, i32, i32, i32, i32, i32, [150 x %struct.pair_st], ptr, [32768 x i8] }
%struct.pair_st = type { ptr, ptr }
%struct.ossl_param_st = type { ptr, i32, ptr, i64, i64 }

@.str.29 = private unnamed_addr constant [27 x i8] c"../openssl/test/evp_test.c\00", align 1
@.str.120 = private unnamed_addr constant [24 x i8] c"ERR_TOO_MANY_PARAMETERS\00", align 1
@.str.121 = private unnamed_addr constant [31 x i8] c"tmpkey = OPENSSL_strdup(value)\00", align 1
@.str.122 = private unnamed_addr constant [16 x i8] c"ERR_PARAM_ERROR\00", align 1

; Function Attrs: inlinehint nounwind uwtable
define internal ptr @ossl_check_const_OPENSSL_STRING_sk_type(ptr noundef %0) #5 {
  %2 = alloca ptr, align 8
  store ptr %0, ptr %2, align 8, !tbaa !131
  %3 = load ptr, ptr %2, align 8, !tbaa !131
  ret ptr %3
}

; Function Attrs: nounwind uwtable
define internal i32 @ctrl2params(ptr noundef %0, ptr noundef %1, ptr noundef %2, ptr noundef %3, i64 noundef %4, ptr noundef %5) #0 {
  %7 = alloca i32, align 4
  %8 = alloca ptr, align 8
  %9 = alloca ptr, align 8
  %10 = alloca ptr, align 8
  %11 = alloca ptr, align 8
  %12 = alloca i64, align 8
  %13 = alloca ptr, align 8
  %14 = alloca i32, align 4
  %15 = alloca ptr, align 8
  %16 = alloca ptr, align 8
  %17 = alloca ptr, align 8
  %18 = alloca i32, align 4
  %19 = alloca %struct.ossl_param_st, align 8
  store ptr %0, ptr %8, align 8, !tbaa !15
  store ptr %1, ptr %9, align 8, !tbaa !131
  store ptr %2, ptr %10, align 8, !tbaa !33
  store ptr %3, ptr %11, align 8, !tbaa !33
  store i64 %4, ptr %12, align 8, !tbaa !13
  store ptr %5, ptr %13, align 8, !tbaa !71
  call void @llvm.lifetime.start.p0(i64 4, ptr %14) #10
  %20 = load ptr, ptr %10, align 8, !tbaa !33
  %21 = icmp eq ptr %20, null
  br i1 %21, label %22, label %23

22:                                               ; preds = %6
  store ptr @settable_ctx_params, ptr %10, align 8, !tbaa !33
  br label %23

23:                                               ; preds = %22, %6
  %24 = load ptr, ptr %13, align 8, !tbaa !71
  %25 = load i64, ptr %24, align 8, !tbaa !13
  %26 = load ptr, ptr %9, align 8, !tbaa !131
  %27 = call ptr @ossl_check_const_OPENSSL_STRING_sk_type(ptr noundef %26)
  %28 = call i32 @OPENSSL_sk_num(ptr noundef %27)
  %29 = sext i32 %28 to i64
  %30 = add i64 %25, %29
  %31 = load i64, ptr %12, align 8, !tbaa !13
  %32 = icmp uge i64 %30, %31
  br i1 %32, label %33, label %36

33:                                               ; preds = %23
  %34 = load ptr, ptr %8, align 8, !tbaa !15
  %35 = getelementptr inbounds nuw %struct.evp_test_st, ptr %34, i32 0, i32 4
  store ptr @.str.120, ptr %35, align 8, !tbaa !63
  br label %98

36:                                               ; preds = %23
  store i32 0, ptr %14, align 4, !tbaa !9
  br label %37

37:                                               ; preds = %90, %36
  %38 = load i32, ptr %14, align 4, !tbaa !9
  %39 = load ptr, ptr %9, align 8, !tbaa !131
  %40 = call ptr @ossl_check_const_OPENSSL_STRING_sk_type(ptr noundef %39)
  %41 = call i32 @OPENSSL_sk_num(ptr noundef %40)
  %42 = icmp slt i32 %38, %41
  br i1 %42, label %43, label %93

43:                                               ; preds = %37
  call void @llvm.lifetime.start.p0(i64 8, ptr %15) #10
  call void @llvm.lifetime.start.p0(i64 8, ptr %16) #10
  call void @llvm.lifetime.start.p0(i64 8, ptr %17) #10
  %44 = load ptr, ptr %9, align 8, !tbaa !131
  %45 = call ptr @ossl_check_const_OPENSSL_STRING_sk_type(ptr noundef %44)
  %46 = load i32, ptr %14, align 4, !tbaa !9
  %47 = call ptr @OPENSSL_sk_value(ptr noundef %45, i32 noundef %46)
  store ptr %47, ptr %17, align 8, !tbaa !4
  %48 = load ptr, ptr %17, align 8, !tbaa !4
  %49 = call noalias ptr @CRYPTO_strdup(ptr noundef %48, ptr noundef @.str.29, i32 noundef 261)
  store ptr %49, ptr %15, align 8, !tbaa !4
  %50 = call i32 @test_ptr(ptr noundef @.str.29, i32 noundef 261, ptr noundef @.str.121, ptr noundef %49)
  %51 = icmp ne i32 %50, 0
  br i1 %51, label %55, label %52

52:                                               ; preds = %43
  %53 = load ptr, ptr %8, align 8, !tbaa !15
  %54 = getelementptr inbounds nuw %struct.evp_test_st, ptr %53, i32 0, i32 4
  store ptr @.str.122, ptr %54, align 8, !tbaa !63
  store i32 2, ptr %18, align 4
  br label %87

55:                                               ; preds = %43
  %56 = load ptr, ptr %15, align 8, !tbaa !4
  %57 = call ptr @strchr(ptr noundef %56, i32 noundef 58) #11
  store ptr %57, ptr %16, align 8, !tbaa !4
  %58 = load ptr, ptr %16, align 8, !tbaa !4
  %59 = icmp ne ptr %58, null
  br i1 %59, label %60, label %63

60:                                               ; preds = %55
  %61 = load ptr, ptr %16, align 8, !tbaa !4
  %62 = getelementptr inbounds nuw i8, ptr %61, i32 1
  store ptr %62, ptr %16, align 8, !tbaa !4
  store i8 0, ptr %61, align 1, !tbaa !46
  br label %63

63:                                               ; preds = %60, %55
  %64 = load ptr, ptr %16, align 8, !tbaa !4
  %65 = icmp eq ptr %64, null
  br i1 %65, label %78, label %66

66:                                               ; preds = %63
  %67 = load ptr, ptr %11, align 8, !tbaa !33
  %68 = load ptr, ptr %13, align 8, !tbaa !71
  %69 = load i64, ptr %68, align 8, !tbaa !13
  %70 = getelementptr inbounds nuw %struct.ossl_param_st, ptr %67, i64 %69
  %71 = load ptr, ptr %10, align 8, !tbaa !33
  %72 = load ptr, ptr %15, align 8, !tbaa !4
  %73 = load ptr, ptr %16, align 8, !tbaa !4
  %74 = load ptr, ptr %16, align 8, !tbaa !4
  %75 = call i64 @strlen(ptr noundef %74) #11
  %76 = call i32 @OSSL_PARAM_allocate_from_text(ptr noundef %70, ptr noundef %71, ptr noundef %72, ptr noundef %73, i64 noundef %75, ptr noundef null)
  %77 = icmp ne i32 %76, 0
  br i1 %77, label %82, label %78

78:                                               ; preds = %66, %63
  %79 = load ptr, ptr %15, align 8, !tbaa !4
  call void @CRYPTO_free(ptr noundef %79, ptr noundef @.str.29, i32 noundef 274)
  %80 = load ptr, ptr %8, align 8, !tbaa !15
  %81 = getelementptr inbounds nuw %struct.evp_test_st, ptr %80, i32 0, i32 4
  store ptr @.str.122, ptr %81, align 8, !tbaa !63
  store i32 2, ptr %18, align 4
  br label %87

82:                                               ; preds = %66
  %83 = load ptr, ptr %13, align 8, !tbaa !71
  %84 = load i64, ptr %83, align 8, !tbaa !13
  %85 = add i64 %84, 1
  store i64 %85, ptr %83, align 8, !tbaa !13
  %86 = load ptr, ptr %15, align 8, !tbaa !4
  call void @CRYPTO_free(ptr noundef %86, ptr noundef @.str.29, i32 noundef 279)
  store i32 0, ptr %18, align 4
  br label %87

87:                                               ; preds = %78, %52, %82
  call void @llvm.lifetime.end.p0(i64 8, ptr %17) #10
  call void @llvm.lifetime.end.p0(i64 8, ptr %16) #10
  call void @llvm.lifetime.end.p0(i64 8, ptr %15) #10
  %88 = load i32, ptr %18, align 4
  switch i32 %88, label %99 [
    i32 0, label %89
    i32 2, label %98
  ]

89:                                               ; preds = %87
  br label %90

90:                                               ; preds = %89
  %91 = load i32, ptr %14, align 4, !tbaa !9
  %92 = add nsw i32 %91, 1
  store i32 %92, ptr %14, align 4, !tbaa !9
  br label %37, !llvm.loop !132

93:                                               ; preds = %37
  %94 = load ptr, ptr %11, align 8, !tbaa !33
  %95 = load ptr, ptr %13, align 8, !tbaa !71
  %96 = load i64, ptr %95, align 8, !tbaa !13
  %97 = getelementptr inbounds nuw %struct.ossl_param_st, ptr %94, i64 %96
  call void @llvm.lifetime.start.p0(i64 40, ptr %19) #10
  call void @OSSL_PARAM_construct_end(ptr dead_on_unwind writable sret(%struct.ossl_param_st) align 8 %19)
  call void @llvm.memcpy.p0.p0.i64(ptr align 8 %97, ptr align 8 %19, i64 40, i1 false), !tbaa.struct !96
  call void @llvm.lifetime.end.p0(i64 40, ptr %19) #10
  store i32 1, ptr %7, align 4
  store i32 1, ptr %18, align 4
  br label %99

98:                                               ; preds = %87, %33
  store i32 0, ptr %7, align 4
  store i32 1, ptr %18, align 4
  br label %99

99:                                               ; preds = %98, %93, %87
  call void @llvm.lifetime.end.p0(i64 4, ptr %14) #10
  %100 = load i32, ptr %7, align 4
  ret i32 %100
}