; Function Attrs: nounwind uwtable
define internal fastcc range(i32 0, 2) i32 @ctrl2params(ptr noundef writeonly captures(none) %0, ptr noundef %1, ptr noundef %2, ptr noundef nonnull %3, i64 noundef range(i64 2, 22) %4, ptr noundef nonnull captures(none) %5) unnamed_addr #1 {
  %7 = alloca %struct.ossl_param_st, align 8
  %8 = icmp eq ptr %2, null
  %spec.store.select = select i1 %8, ptr @settable_ctx_params, ptr %2
  %9 = load i64, ptr %5, align 8, !tbaa !35
  %10 = tail call i32 @OPENSSL_sk_num(ptr noundef %1) #10
  %11 = sext i32 %10 to i64
  %12 = add i64 %9, %11
  %.not = icmp ult i64 %12, %4
  br i1 %.not, label %.preheader, label %15

.preheader:                                       ; preds = %6
  %13 = tail call i32 @OPENSSL_sk_num(ptr noundef %1) #10
  %14 = icmp sgt i32 %13, 0
  br i1 %14, label %.lr.ph, label %._crit_edge

15:                                               ; preds = %6
  %16 = getelementptr inbounds nuw i8, ptr %0, i64 35240
  store ptr @.str.120, ptr %16, align 8, !tbaa !64
  br label %.thread38

.lr.ph:                                           ; preds = %.preheader, %31
  %.03142 = phi i32 [ %34, %31 ], [ 0, %.preheader ]
  %17 = tail call ptr @OPENSSL_sk_value(ptr noundef %1, i32 noundef %.03142) #10
  %18 = tail call noalias ptr @CRYPTO_strdup(ptr noundef %17, ptr noundef nonnull @.str.29, i32 noundef 261) #10
  %19 = tail call i32 @test_ptr(ptr noundef nonnull @.str.29, i32 noundef 261, ptr noundef nonnull @.str.121, ptr noundef %18) #10
  %.not33 = icmp eq i32 %19, 0
  br i1 %.not33, label %20, label %22

20:                                               ; preds = %.lr.ph
  %21 = getelementptr inbounds nuw i8, ptr %0, i64 35240
  store ptr @.str.122, ptr %21, align 8, !tbaa !64
  br label %.thread38

22:                                               ; preds = %.lr.ph
  %23 = tail call ptr @strchr(ptr noundef nonnull dereferenceable(1) %18, i32 noundef 58) #11
  %.not34 = icmp eq ptr %23, null
  br i1 %.not34, label %.thread, label %24

24:                                               ; preds = %22
  %25 = getelementptr inbounds nuw i8, ptr %23, i64 1
  store i8 0, ptr %23, align 1, !tbaa !34
  %26 = load i64, ptr %5, align 8, !tbaa !35
  %27 = getelementptr inbounds nuw %struct.ossl_param_st, ptr %3, i64 %26
  %28 = tail call i64 @strlen(ptr noundef nonnull dereferenceable(1) %25) #11
  %29 = tail call i32 @OSSL_PARAM_allocate_from_text(ptr noundef nonnull %27, ptr noundef nonnull %spec.store.select, ptr noundef nonnull %18, ptr noundef nonnull %25, i64 noundef %28, ptr noundef null) #10
  %.not35 = icmp eq i32 %29, 0
  br i1 %.not35, label %.thread, label %31

.thread:                                          ; preds = %22, %24
  tail call void @CRYPTO_free(ptr noundef nonnull %18, ptr noundef nonnull @.str.29, i32 noundef 274) #10
  %30 = getelementptr inbounds nuw i8, ptr %0, i64 35240
  store ptr @.str.122, ptr %30, align 8, !tbaa !64
  br label %.thread38

31:                                               ; preds = %24
  %32 = load i64, ptr %5, align 8, !tbaa !35
  %33 = add i64 %32, 1
  store i64 %33, ptr %5, align 8, !tbaa !35
  tail call void @CRYPTO_free(ptr noundef nonnull %18, ptr noundef nonnull @.str.29, i32 noundef 279) #10
  %34 = add nuw nsw i32 %.03142, 1
  %35 = tail call i32 @OPENSSL_sk_num(ptr noundef %1) #10
  %36 = icmp slt i32 %34, %35
  br i1 %36, label %.lr.ph, label %._crit_edge, !llvm.loop !112

._crit_edge:                                      ; preds = %31, %.preheader
  %37 = load i64, ptr %5, align 8, !tbaa !35
  %38 = getelementptr inbounds nuw %struct.ossl_param_st, ptr %3, i64 %37
  call void @llvm.lifetime.start.p0(i64 40, ptr nonnull %7) #10
  call void @OSSL_PARAM_construct_end(ptr dead_on_unwind nonnull writable sret(%struct.ossl_param_st) align 8 %7) #10
  call void @llvm.memcpy.p0.p0.i64(ptr noundef nonnull align 8 dereferenceable(40) %38, ptr noundef nonnull align 8 dereferenceable(40) %7, i64 40, i1 false), !tbaa.struct !96
  call void @llvm.lifetime.end.p0(i64 40, ptr nonnull %7) #10
  br label %.thread38

.thread38:                                        ; preds = %20, %.thread, %15, %._crit_edge
  %.029 = phi i32 [ 1, %._crit_edge ], [ 0, %15 ], [ 0, %.thread ], [ 0, %20 ]
  ret i32 %.029
}